target datalayout = "e-m:e-p270:32:32-p271:32:32-p272:64:64-i64:64-i128:128-f80:128-n8:16:32:64-S128"
target triple = "x86_64-unknown-linux-gnu"

module asm ".section \22.export_symbol\22,\22a\22 ; __export_symbol_wbinvd_on_cpu: ; .asciz \22\22 ; .asciz \22\22 ; .balign 8 ; .quad wbinvd_on_cpu ; .previous"
module asm ".section \22.export_symbol\22,\22a\22 ; __export_symbol_wbinvd_on_all_cpus: ; .asciz \22\22 ; .asciz \22\22 ; .balign 8 ; .quad wbinvd_on_all_cpus ; .previous"

%struct.cpumask = type { [1 x i64] }

@__UNIQUE_ID___addressable_wbinvd_on_cpu48 = internal global ptr @wbinvd_on_cpu, section ".discard.addressable", align 8
@__UNIQUE_ID___addressable_wbinvd_on_all_cpus49 = internal global ptr @wbinvd_on_all_cpus, section ".discard.addressable", align 8
@__cpu_online_mask = external dso_local global %struct.cpumask, align 8
@llvm.compiler.used = appending global [2 x ptr] [ptr @__UNIQUE_ID___addressable_wbinvd_on_all_cpus49, ptr @__UNIQUE_ID___addressable_wbinvd_on_cpu48], section "llvm.metadata"

; Function Attrs: fn_ret_thunk_extern nounwind null_pointer_is_valid
define dso_local void @wbinvd_on_cpu(i32 noundef %0) #0 align 16 {
  %2 = tail call i32 @smp_call_function_single(i32 noundef %0, ptr noundef nonnull @__wbinvd, ptr noundef null, i32 noundef 1) #2
  ret void
}

; Function Attrs: null_pointer_is_valid
declare dso_local i32 @smp_call_function_single(i32 noundef, ptr noundef, ptr noundef, i32 noundef) local_unnamed_addr #1

; Function Attrs: fn_ret_thunk_extern nounwind null_pointer_is_valid
define internal void @__wbinvd(ptr nocapture readnone %0) #0 align 16 {
  tail call void asm sideeffect "wbinvd", "~{memory},~{dirflag},~{fpsr},~{flags}"() #2, !srcloc !5
  ret void
}

; Function Attrs: fn_ret_thunk_extern nounwind null_pointer_is_valid
define dso_local noundef i32 @wbinvd_on_all_cpus() #0 align 16 {
  tail call void @on_each_cpu_cond_mask(ptr noundef null, ptr noundef nonnull @__wbinvd, ptr noundef null, i1 noundef zeroext true, ptr noundef nonnull @__cpu_online_mask) #2
  ret i32 0
}

; Function Attrs: null_pointer_is_valid
declare dso_local void @on_each_cpu_cond_mask(ptr noundef, ptr noundef, ptr noundef, i1 noundef zeroext, ptr noundef) local_unnamed_addr #1


!llvm.module.flags = !{!0, !1, !2, !3, !4}

!0 = !{i32 1, !"wchar_size", i32 2}
!1 = !{i32 8, !"cf-protection-branch", i32 1}
!2 = !{i32 4, !"function_return_thunk_extern", i32 1}
!3 = !{i32 4, !"indirect_branch_cs_prefix", i32 1}
!4 = !{i32 4, !"SkipRaxSetup", i32 1}
!5 = !{i64 1957423}
